Archive member included to satisfy reference by file (symbol)

/Applications/Arduino-1.8.13.app/Contents/Java/portable/packages/adafruit/tools/arm-none-eabi-gcc/9-2019q4/bin/../lib/gcc/arm-none-eabi/9.2.1/thumb/v6-m/nofp/libgcc.a(_thumb1_case_sqi.o)
                              build/tis_trinket/msc.o (__gnu_thumb1_case_sqi)
/Applications/Arduino-1.8.13.app/Contents/Java/portable/packages/adafruit/tools/arm-none-eabi-gcc/9-2019q4/bin/../lib/gcc/arm-none-eabi/9.2.1/thumb/v6-m/nofp/libgcc.a(_thumb1_case_uqi.o)
                              build/tis_trinket/hid.o (__gnu_thumb1_case_uqi)
/Applications/Arduino-1.8.13.app/Contents/Java/portable/packages/adafruit/tools/arm-none-eabi-gcc/9-2019q4/bin/../lib/gcc/arm-none-eabi/9.2.1/../../../../arm-none-eabi/lib/thumb/v6-m/nofp/libg_nano.a(lib_a-memcpy-stub.o)
                              build/tis_trinket/cdc_enumerate.o (memcpy)
/Applications/Arduino-1.8.13.app/Contents/Java/portable/packages/adafruit/tools/arm-none-eabi-gcc/9-2019q4/bin/../lib/gcc/arm-none-eabi/9.2.1/../../../../arm-none-eabi/lib/thumb/v6-m/nofp/libg_nano.a(lib_a-memset.o)
                              build/tis_trinket/cdc_enumerate.o (memset)
/Applications/Arduino-1.8.13.app/Contents/Java/portable/packages/adafruit/tools/arm-none-eabi-gcc/9-2019q4/bin/../lib/gcc/arm-none-eabi/9.2.1/../../../../arm-none-eabi/lib/thumb/v6-m/nofp/libg_nano.a(lib_a-strlen.o)
                              build/tis_trinket/cdc_enumerate.o (strlen)

Allocating common symbols
Common symbol       size              file

b_sharp_received    0x1               build/tis_trinket/usart_sam_ba.o
timerHigh           0x4               build/tis_trinket/utils.o
j                   0x1               build/tis_trinket/sam_ba_monitor.o
idx_rx_write        0x1               build/tis_trinket/usart_sam_ba.o
size_of_data        0x2               build/tis_trinket/usart_sam_ba.o
ctrlOutCache        0x44              build/tis_trinket/cdc_enumerate.o
length              0x4               build/tis_trinket/sam_ba_monitor.o
ptr                 0x4               build/tis_trinket/sam_ba_monitor.o
command             0x1               build/tis_trinket/sam_ba_monitor.o
resetHorizon        0x4               build/tis_trinket/utils.o
idx_tx_read         0x1               build/tis_trinket/usart_sam_ba.o
i                   0x4               build/tis_trinket/sam_ba_monitor.o
buffer_tx_usart     0x80              build/tis_trinket/usart_sam_ba.o
error_timeout       0x1               build/tis_trinket/usart_sam_ba.o
usb_endpoint_table  0x100             build/tis_trinket/cdc_enumerate.o
data                0x41              build/tis_trinket/sam_ba_monitor.o
mode_of_transfer    0x1               build/tis_trinket/usart_sam_ba.o
ptr_data            0x4               build/tis_trinket/sam_ba_monitor.o
idx_rx_read         0x1               build/tis_trinket/usart_sam_ba.o
sp                  0x4               build/tis_trinket/sam_ba_monitor.o
current_number      0x4               build/tis_trinket/sam_ba_monitor.o
idx_tx_write        0x1               build/tis_trinket/usart_sam_ba.o
endpointCache       0x220             build/tis_trinket/cdc_enumerate.o
u32tmp              0x4               build/tis_trinket/sam_ba_monitor.o
buffer_rx_usart     0x80              build/tis_trinket/usart_sam_ba.o

Discarded input sections

 .text          0x0000000000000000        0x0 build/tis_trinket/flash_samd21.o
 .data          0x0000000000000000        0x0 build/tis_trinket/flash_samd21.o
 .bss           0x0000000000000000        0x0 build/tis_trinket/flash_samd21.o
 .text.flash_write
                0x0000000000000000       0x90 build/tis_trinket/flash_samd21.o
 .text          0x0000000000000000        0x0 build/tis_trinket/init_samd21.o
 .data          0x0000000000000000        0x0 build/tis_trinket/init_samd21.o
 .bss           0x0000000000000000        0x0 build/tis_trinket/init_samd21.o
 .data.g_interrupt_enabled
                0x0000000000000000        0x1 build/tis_trinket/init_samd21.o
 .text          0x0000000000000000        0x0 build/tis_trinket/startup_samd21.o
 .data          0x0000000000000000        0x0 build/tis_trinket/startup_samd21.o
 .bss           0x0000000000000000        0x0 build/tis_trinket/startup_samd21.o
 .text          0x0000000000000000        0x0 build/tis_trinket/usart_sam_ba.o
 .data          0x0000000000000000        0x0 build/tis_trinket/usart_sam_ba.o
 .bss           0x0000000000000000        0x0 build/tis_trinket/usart_sam_ba.o
 .text.usart_open
                0x0000000000000000       0xbc build/tis_trinket/usart_sam_ba.o
 .text.usart_close
                0x0000000000000000       0x10 build/tis_trinket/usart_sam_ba.o
 .text.usart_putc
                0x0000000000000000       0x14 build/tis_trinket/usart_sam_ba.o
 .text.usart_getc
                0x0000000000000000       0x10 build/tis_trinket/usart_sam_ba.o
 .text.usart_is_rx_ready
                0x0000000000000000       0x10 build/tis_trinket/usart_sam_ba.o
 .text.usart_sharp_received
                0x0000000000000000       0x1a build/tis_trinket/usart_sam_ba.o
 .text.usart_readc
                0x0000000000000000       0x20 build/tis_trinket/usart_sam_ba.o
 .text.usart_putdata
                0x0000000000000000       0x1a build/tis_trinket/usart_sam_ba.o
 .text.usart_getdata
                0x0000000000000000        0xe build/tis_trinket/usart_sam_ba.o
 .text.getbytes
                0x0000000000000000       0x60 build/tis_trinket/usart_sam_ba.o
 .text.getPacket
                0x0000000000000000       0x70 build/tis_trinket/usart_sam_ba.o
 .text.usart_putdata_xmd
                0x0000000000000000      0x10c build/tis_trinket/usart_sam_ba.o
 .text.usart_getdata_xmd
                0x0000000000000000       0xb8 build/tis_trinket/usart_sam_ba.o
 COMMON         0x0000000000000000      0x109 build/tis_trinket/usart_sam_ba.o
 .text          0x0000000000000000        0x0 build/tis_trinket/screen.o
 .data          0x0000000000000000        0x0 build/tis_trinket/screen.o
 .bss           0x0000000000000000        0x0 build/tis_trinket/screen.o
 .debug_info    0x0000000000000000      0x993 build/tis_trinket/screen.o
 .debug_abbrev  0x0000000000000000      0x1bd build/tis_trinket/screen.o
 .debug_aranges
                0x0000000000000000       0x18 build/tis_trinket/screen.o
 .debug_line    0x0000000000000000      0x245 build/tis_trinket/screen.o
 .debug_str     0x0000000000000000      0x61f build/tis_trinket/screen.o
 .comment       0x0000000000000000       0x7a build/tis_trinket/screen.o
 .ARM.attributes
                0x0000000000000000       0x32 build/tis_trinket/screen.o
 .text          0x0000000000000000        0x0 build/tis_trinket/images.o
 .data          0x0000000000000000        0x0 build/tis_trinket/images.o
 .bss           0x0000000000000000        0x0 build/tis_trinket/images.o
 .rodata.arrowLogo
                0x0000000000000000       0x39 build/tis_trinket/images.o
 .rodata.fileLogo
                0x0000000000000000       0x4a build/tis_trinket/images.o
 .rodata.font8  0x0000000000000000      0x240 build/tis_trinket/images.o
 .rodata.pendriveLogo
                0x0000000000000000       0x3e build/tis_trinket/images.o
 .debug_info    0x0000000000000000      0x11e build/tis_trinket/images.o
 .debug_abbrev  0x0000000000000000       0x6a build/tis_trinket/images.o
 .debug_aranges
                0x0000000000000000       0x18 build/tis_trinket/images.o
 .debug_line    0x0000000000000000      0x15c build/tis_trinket/images.o
 .debug_str     0x0000000000000000      0x1ea build/tis_trinket/images.o
 .comment       0x0000000000000000       0x7a build/tis_trinket/images.o
 .ARM.attributes
                0x0000000000000000       0x32 build/tis_trinket/images.o
 .text          0x0000000000000000        0x0 build/tis_trinket/utils.o
 .data          0x0000000000000000        0x0 build/tis_trinket/utils.o
 .bss           0x0000000000000000        0x0 build/tis_trinket/utils.o
 .text.panic    0x0000000000000000        0x2 build/tis_trinket/utils.o
 .text          0x0000000000000000        0x0 build/tis_trinket/cdc_enumerate.o
 .data          0x0000000000000000        0x0 build/tis_trinket/cdc_enumerate.o
 .bss           0x0000000000000000        0x0 build/tis_trinket/cdc_enumerate.o
 .text.reset_ep
                0x0000000000000000       0x24 build/tis_trinket/cdc_enumerate.o
 .text.stall_ep
                0x0000000000000000       0x20 build/tis_trinket/cdc_enumerate.o
 .text.cdc_is_rx_ready
                0x0000000000000000       0x20 build/tis_trinket/cdc_enumerate.o
 .text          0x0000000000000000        0x0 build/tis_trinket/fat.o
 .data          0x0000000000000000        0x0 build/tis_trinket/fat.o
 .bss           0x0000000000000000        0x0 build/tis_trinket/fat.o
 .text          0x0000000000000000        0x0 build/tis_trinket/main.o
 .data          0x0000000000000000        0x0 build/tis_trinket/main.o
 .bss           0x0000000000000000        0x0 build/tis_trinket/main.o
 .text          0x0000000000000000        0x0 build/tis_trinket/msc.o
 .data          0x0000000000000000        0x0 build/tis_trinket/msc.o
 .bss           0x0000000000000000        0x0 build/tis_trinket/msc.o
 .text.msc_reset
                0x0000000000000000       0x1c build/tis_trinket/msc.o
 .text.udd_ep_set_halt
                0x0000000000000000       0x10 build/tis_trinket/msc.o
 .bss.mscReset  0x0000000000000000        0x1 build/tis_trinket/msc.o
 .text          0x0000000000000000        0x0 build/tis_trinket/sam_ba_monitor.o
 .data          0x0000000000000000        0x0 build/tis_trinket/sam_ba_monitor.o
 .bss           0x0000000000000000        0x0 build/tis_trinket/sam_ba_monitor.o
 .text.sam_ba_monitor_init
                0x0000000000000000        0x2 build/tis_trinket/sam_ba_monitor.o
 .text.sam_ba_putdata_term
                0x0000000000000000        0x8 build/tis_trinket/sam_ba_monitor.o
 .text          0x0000000000000000        0x0 build/tis_trinket/uart_driver.o
 .data          0x0000000000000000        0x0 build/tis_trinket/uart_driver.o
 .bss           0x0000000000000000        0x0 build/tis_trinket/uart_driver.o
 .text.uart_get_sercom_index
                0x0000000000000000       0x2c build/tis_trinket/uart_driver.o
 .text.uart_basic_init
                0x0000000000000000       0x5c build/tis_trinket/uart_driver.o
 .text.uart_disable
                0x0000000000000000       0x10 build/tis_trinket/uart_driver.o
 .text.uart_write_byte
                0x0000000000000000        0xc build/tis_trinket/uart_driver.o
 .text.uart_read_byte
                0x0000000000000000       0x28 build/tis_trinket/uart_driver.o
 .text.uart_write_buffer_polled
                0x0000000000000000       0x20 build/tis_trinket/uart_driver.o
 .text.uart_read_buffer_polled
                0x0000000000000000       0x3c build/tis_trinket/uart_driver.o
 .rodata        0x0000000000000000       0x10 build/tis_trinket/uart_driver.o
 .bss.uart_drv_error_flag
                0x0000000000000000        0x1 build/tis_trinket/uart_driver.o
 .debug_info    0x0000000000000000     0x2912 build/tis_trinket/uart_driver.o
 .debug_abbrev  0x0000000000000000      0x2f6 build/tis_trinket/uart_driver.o
 .debug_loc     0x0000000000000000      0x191 build/tis_trinket/uart_driver.o
 .debug_aranges
                0x0000000000000000       0x50 build/tis_trinket/uart_driver.o
 .debug_ranges  0x0000000000000000       0x58 build/tis_trinket/uart_driver.o
 .debug_line    0x0000000000000000      0x5ea build/tis_trinket/uart_driver.o
 .debug_str     0x0000000000000000      0xe13 build/tis_trinket/uart_driver.o
 .comment       0x0000000000000000       0x7a build/tis_trinket/uart_driver.o
 .debug_frame   0x0000000000000000       0xb0 build/tis_trinket/uart_driver.o
 .ARM.attributes
                0x0000000000000000       0x2c build/tis_trinket/uart_driver.o
 .text          0x0000000000000000        0x0 build/tis_trinket/hid.o
 .data          0x0000000000000000        0x0 build/tis_trinket/hid.o
 .bss           0x0000000000000000        0x0 build/tis_trinket/hid.o
 .data          0x0000000000000000        0x0 /Applications/Arduino-1.8.13.app/Contents/Java/portable/packages/adafruit/tools/arm-none-eabi-gcc/9-2019q4/bin/../lib/gcc/arm-none-eabi/9.2.1/thumb/v6-m/nofp/libgcc.a(_thumb1_case_sqi.o)
 .bss           0x0000000000000000        0x0 /Applications/Arduino-1.8.13.app/Contents/Java/portable/packages/adafruit/tools/arm-none-eabi-gcc/9-2019q4/bin/../lib/gcc/arm-none-eabi/9.2.1/thumb/v6-m/nofp/libgcc.a(_thumb1_case_sqi.o)
 .data          0x0000000000000000        0x0 /Applications/Arduino-1.8.13.app/Contents/Java/portable/packages/adafruit/tools/arm-none-eabi-gcc/9-2019q4/bin/../lib/gcc/arm-none-eabi/9.2.1/thumb/v6-m/nofp/libgcc.a(_thumb1_case_uqi.o)
 .bss           0x0000000000000000        0x0 /Applications/Arduino-1.8.13.app/Contents/Java/portable/packages/adafruit/tools/arm-none-eabi-gcc/9-2019q4/bin/../lib/gcc/arm-none-eabi/9.2.1/thumb/v6-m/nofp/libgcc.a(_thumb1_case_uqi.o)
 .text          0x0000000000000000        0x0 /Applications/Arduino-1.8.13.app/Contents/Java/portable/packages/adafruit/tools/arm-none-eabi-gcc/9-2019q4/bin/../lib/gcc/arm-none-eabi/9.2.1/../../../../arm-none-eabi/lib/thumb/v6-m/nofp/libg_nano.a(lib_a-memcpy-stub.o)
 .data          0x0000000000000000        0x0 /Applications/Arduino-1.8.13.app/Contents/Java/portable/packages/adafruit/tools/arm-none-eabi-gcc/9-2019q4/bin/../lib/gcc/arm-none-eabi/9.2.1/../../../../arm-none-eabi/lib/thumb/v6-m/nofp/libg_nano.a(lib_a-memcpy-stub.o)
 .bss           0x0000000000000000        0x0 /Applications/Arduino-1.8.13.app/Contents/Java/portable/packages/adafruit/tools/arm-none-eabi-gcc/9-2019q4/bin/../lib/gcc/arm-none-eabi/9.2.1/../../../../arm-none-eabi/lib/thumb/v6-m/nofp/libg_nano.a(lib_a-memcpy-stub.o)
 .text          0x0000000000000000        0x0 /Applications/Arduino-1.8.13.app/Contents/Java/portable/packages/adafruit/tools/arm-none-eabi-gcc/9-2019q4/bin/../lib/gcc/arm-none-eabi/9.2.1/../../../../arm-none-eabi/lib/thumb/v6-m/nofp/libg_nano.a(lib_a-memset.o)
 .data          0x0000000000000000        0x0 /Applications/Arduino-1.8.13.app/Contents/Java/portable/packages/adafruit/tools/arm-none-eabi-gcc/9-2019q4/bin/../lib/gcc/arm-none-eabi/9.2.1/../../../../arm-none-eabi/lib/thumb/v6-m/nofp/libg_nano.a(lib_a-memset.o)
 .bss           0x0000000000000000        0x0 /Applications/Arduino-1.8.13.app/Contents/Java/portable/packages/adafruit/tools/arm-none-eabi-gcc/9-2019q4/bin/../lib/gcc/arm-none-eabi/9.2.1/../../../../arm-none-eabi/lib/thumb/v6-m/nofp/libg_nano.a(lib_a-memset.o)
 .data          0x0000000000000000        0x0 /Applications/Arduino-1.8.13.app/Contents/Java/portable/packages/adafruit/tools/arm-none-eabi-gcc/9-2019q4/bin/../lib/gcc/arm-none-eabi/9.2.1/../../../../arm-none-eabi/lib/thumb/v6-m/nofp/libg_nano.a(lib_a-strlen.o)
 .bss           0x0000000000000000        0x0 /Applications/Arduino-1.8.13.app/Contents/Java/portable/packages/adafruit/tools/arm-none-eabi-gcc/9-2019q4/bin/../lib/gcc/arm-none-eabi/9.2.1/../../../../arm-none-eabi/lib/thumb/v6-m/nofp/libg_nano.a(lib_a-strlen.o)

Memory Configuration

Name             Origin             Length             Attributes
rom              0x0000000000000000 0x0000000000002000 xr
ram              0x0000000020000000 0x0000000000008000 xrw
*default*        0x0000000000000000 0xffffffffffffffff

Linker script and memory map

LOAD build/tis_trinket/flash_samd21.o
LOAD build/tis_trinket/init_samd21.o
LOAD build/tis_trinket/startup_samd21.o
LOAD build/tis_trinket/usart_sam_ba.o
LOAD build/tis_trinket/screen.o
LOAD build/tis_trinket/images.o
LOAD build/tis_trinket/utils.o
LOAD build/tis_trinket/cdc_enumerate.o
LOAD build/tis_trinket/fat.o
LOAD build/tis_trinket/main.o
LOAD build/tis_trinket/msc.o
LOAD build/tis_trinket/sam_ba_monitor.o
LOAD build/tis_trinket/uart_driver.o
LOAD build/tis_trinket/hid.o
START GROUP
LOAD /Applications/Arduino-1.8.13.app/Contents/Java/portable/packages/adafruit/tools/arm-none-eabi-gcc/9-2019q4/bin/../lib/gcc/arm-none-eabi/9.2.1/thumb/v6-m/nofp/libgcc.a
LOAD /Applications/Arduino-1.8.13.app/Contents/Java/portable/packages/adafruit/tools/arm-none-eabi-gcc/9-2019q4/bin/../lib/gcc/arm-none-eabi/9.2.1/../../../../arm-none-eabi/lib/thumb/v6-m/nofp/libg_nano.a
LOAD /Applications/Arduino-1.8.13.app/Contents/Java/portable/packages/adafruit/tools/arm-none-eabi-gcc/9-2019q4/bin/../lib/gcc/arm-none-eabi/9.2.1/../../../../arm-none-eabi/lib/thumb/v6-m/nofp/libc_nano.a
END GROUP
START GROUP
LOAD /Applications/Arduino-1.8.13.app/Contents/Java/portable/packages/adafruit/tools/arm-none-eabi-gcc/9-2019q4/bin/../lib/gcc/arm-none-eabi/9.2.1/thumb/v6-m/nofp/libgcc.a
LOAD /Applications/Arduino-1.8.13.app/Contents/Java/portable/packages/adafruit/tools/arm-none-eabi-gcc/9-2019q4/bin/../lib/gcc/arm-none-eabi/9.2.1/../../../../arm-none-eabi/lib/thumb/v6-m/nofp/libc_nano.a
LOAD /Applications/Arduino-1.8.13.app/Contents/Java/portable/packages/adafruit/tools/arm-none-eabi-gcc/9-2019q4/bin/../lib/gcc/arm-none-eabi/9.2.1/../../../../arm-none-eabi/lib/thumb/v6-m/nofp/libnosys.a
END GROUP
START GROUP
LOAD /Applications/Arduino-1.8.13.app/Contents/Java/portable/packages/adafruit/tools/arm-none-eabi-gcc/9-2019q4/bin/../lib/gcc/arm-none-eabi/9.2.1/thumb/v6-m/nofp/libgcc.a
LOAD /Applications/Arduino-1.8.13.app/Contents/Java/portable/packages/adafruit/tools/arm-none-eabi-gcc/9-2019q4/bin/../lib/gcc/arm-none-eabi/9.2.1/../../../../arm-none-eabi/lib/thumb/v6-m/nofp/libc_nano.a
LOAD /Applications/Arduino-1.8.13.app/Contents/Java/portable/packages/adafruit/tools/arm-none-eabi-gcc/9-2019q4/bin/../lib/gcc/arm-none-eabi/9.2.1/../../../../arm-none-eabi/lib/thumb/v6-m/nofp/libnosys.a
END GROUP
                0x0000000000002000                STACK_SIZE = DEFINED (STACK_SIZE)?STACK_SIZE:DEFINED (__stack_size__)?__stack_size__:0x2000

.text           0x0000000000000000     0x1d60
                0x0000000000000000                . = ALIGN (0x4)
                0x0000000000000000                _sfixed = .
 *(.vectors .vectors.*)
 .vectors       0x0000000000000000       0xb4 build/tis_trinket/startup_samd21.o
                0x0000000000000000                exception_table
 *(.text .text.* .gnu.linkonce.t.*)
 .text.flash_erase_row
                0x00000000000000b4       0x28 build/tis_trinket/flash_samd21.o
                0x00000000000000b4                flash_erase_row
 .text.flash_erase_to_end
                0x00000000000000dc       0x1a build/tis_trinket/flash_samd21.o
                0x00000000000000dc                flash_erase_to_end
 .text.copy_words
                0x00000000000000f6       0x14 build/tis_trinket/flash_samd21.o
                0x00000000000000f6                copy_words
 *fill*         0x000000000000010a        0x2 
 .text.flash_write_words
                0x000000000000010c       0x54 build/tis_trinket/flash_samd21.o
                0x000000000000010c                flash_write_words
 .text.flash_write_row
                0x0000000000000160       0x2e build/tis_trinket/flash_samd21.o
                0x0000000000000160                flash_write_row
 *fill*         0x000000000000018e        0x2 
 .text.dfll_sync
                0x0000000000000190       0x10 build/tis_trinket/init_samd21.o
 .text.system_init
                0x00000000000001a0       0xbc build/tis_trinket/init_samd21.o
                0x00000000000001a0                system_init
 .text.SysTick_Handler
                0x000000000000025c        0x8 build/tis_trinket/init_samd21.o
                0x000000000000025c                SysTick_Handler
 .text.Dummy_Handler
                0x0000000000000264        0x2 build/tis_trinket/startup_samd21.o
                0x0000000000000264                SYSCTRL_Handler
                0x0000000000000264                AC_Handler
                0x0000000000000264                PendSV_Handler
                0x0000000000000264                NMI_Handler
                0x0000000000000264                SERCOM1_Handler
                0x0000000000000264                ADC_Handler
                0x0000000000000264                TCC1_Handler
                0x0000000000000264                SERCOM2_Handler
                0x0000000000000264                TCC0_Handler
                0x0000000000000264                RTC_Handler
                0x0000000000000264                EIC_Handler
                0x0000000000000264                WDT_Handler
                0x0000000000000264                TC4_Handler
                0x0000000000000264                USB_Handler
                0x0000000000000264                TC3_Handler
                0x0000000000000264                Dummy_Handler
                0x0000000000000264                PM_Handler
                0x0000000000000264                SVC_Handler
                0x0000000000000264                TCC2_Handler
                0x0000000000000264                EVSYS_Handler
                0x0000000000000264                SERCOM3_Handler
                0x0000000000000264                I2S_Handler
                0x0000000000000264                NVMCTRL_Handler
                0x0000000000000264                SERCOM0_Handler
                0x0000000000000264                DAC_Handler
                0x0000000000000264                PTC_Handler
                0x0000000000000264                TC5_Handler
                0x0000000000000264                DMAC_Handler
 .text.HardFault_Handler
                0x0000000000000266        0x2 build/tis_trinket/startup_samd21.o
                0x0000000000000266                HardFault_Handler
 .text.Reset_Handler
                0x0000000000000268       0xa8 build/tis_trinket/startup_samd21.o
                0x0000000000000268                Reset_Handler
 .text.add_crc  0x0000000000000310       0x58 build/tis_trinket/usart_sam_ba.o
                0x0000000000000310                add_crc
 .text.delay    0x0000000000000368       0x28 build/tis_trinket/utils.o
                0x0000000000000368                delay
 .text.writeNum
                0x0000000000000390       0x38 build/tis_trinket/utils.o
                0x0000000000000390                writeNum
 .text.resetIntoApp
                0x00000000000003c8       0x28 build/tis_trinket/utils.o
                0x00000000000003c8                resetIntoApp
 .text.timerTick
                0x00000000000003f0       0x40 build/tis_trinket/utils.o
                0x00000000000003f0                timerTick
 .text.resetIntoBootloader
                0x0000000000000430       0x28 build/tis_trinket/utils.o
                0x0000000000000430                resetIntoBootloader
 .text.led_tick
                0x0000000000000458       0x88 build/tis_trinket/utils.o
                0x0000000000000458                led_tick
 .text.led_signal
                0x00000000000004e0       0x2c build/tis_trinket/utils.o
                0x00000000000004e0                led_signal
 .text.led_init
                0x000000000000050c       0x10 build/tis_trinket/utils.o
                0x000000000000050c                led_init
 .text.RGBLED_set_color
                0x000000000000051c        0x2 build/tis_trinket/utils.o
                0x000000000000051c                RGBLED_set_color
 *fill*         0x000000000000051e        0x2 
 .text.AT91F_InitUSB
                0x0000000000000520      0x108 build/tis_trinket/cdc_enumerate.o
                0x0000000000000520                AT91F_InitUSB
 .text.USB_ReadCore
                0x0000000000000628       0xe0 build/tis_trinket/cdc_enumerate.o
                0x0000000000000628                USB_ReadCore
 .text.USB_Read
                0x0000000000000708        0xa build/tis_trinket/cdc_enumerate.o
                0x0000000000000708                USB_Read
 .text.USB_ReadBlocking
                0x0000000000000712       0x22 build/tis_trinket/cdc_enumerate.o
                0x0000000000000712                USB_ReadBlocking
 .text.USB_WriteCore
                0x0000000000000734       0x94 build/tis_trinket/cdc_enumerate.o
                0x0000000000000734                USB_WriteCore
 .text.USB_Write
                0x00000000000007c8        0xa build/tis_trinket/cdc_enumerate.o
                0x00000000000007c8                USB_Write
 *fill*         0x00000000000007d2        0x2 
 .text.sendCtrl
                0x00000000000007d4       0x1c build/tis_trinket/cdc_enumerate.o
 .text.AT91F_USB_SendZlp
                0x00000000000007f0       0x12 build/tis_trinket/cdc_enumerate.o
                0x00000000000007f0                AT91F_USB_SendZlp
 *fill*         0x0000000000000802        0x2 
 .text.USB_Ok   0x0000000000000804      0x504 build/tis_trinket/cdc_enumerate.o
                0x0000000000000804                USB_Ok
 .text.usb_init
                0x0000000000000d08       0x20 build/tis_trinket/cdc_enumerate.o
                0x0000000000000d08                usb_init
 .text.cdc_write_buf
                0x0000000000000d28        0xe build/tis_trinket/cdc_enumerate.o
                0x0000000000000d28                cdc_write_buf
 .text.cdc_write_buf_xmd
                0x0000000000000d36        0xe build/tis_trinket/cdc_enumerate.o
                0x0000000000000d36                cdc_write_buf_xmd
 .text.cdc_read_buf
                0x0000000000000d44       0x1e build/tis_trinket/cdc_enumerate.o
                0x0000000000000d44                cdc_read_buf
 .text.cdc_read_buf_xmd
                0x0000000000000d62       0x22 build/tis_trinket/cdc_enumerate.o
                0x0000000000000d62                cdc_read_buf_xmd
 .text.padded_memcpy
                0x0000000000000d84       0x1e build/tis_trinket/fat.o
                0x0000000000000d84                padded_memcpy
 *fill*         0x0000000000000da2        0x2 
 .text.read_block
                0x0000000000000da4      0x16c build/tis_trinket/fat.o
                0x0000000000000da4                read_block
 .text.write_block
                0x0000000000000f10       0xe8 build/tis_trinket/fat.o
                0x0000000000000f10                write_block
 .text.startup.main
                0x0000000000000ff8      0x1f8 build/tis_trinket/main.o
                0x0000000000000ff8                main
 .text.udi_msc_clear_sense
                0x00000000000011f0       0x1c build/tis_trinket/msc.o
 .text.handover_flash
                0x000000000000120c       0x36 build/tis_trinket/msc.o
 .text.try_read_cbw
                0x0000000000001242       0x2c build/tis_trinket/msc.o
                0x0000000000001242                try_read_cbw
 *fill*         0x000000000000126e        0x2 
 .text.udi_msc_csw_send
                0x0000000000001270       0x14 build/tis_trinket/msc.o
                0x0000000000001270                udi_msc_csw_send
 .text.udi_msc_csw_process
                0x0000000000001284       0x38 build/tis_trinket/msc.o
 .text.udi_msc_data_send
                0x00000000000012bc       0x6c build/tis_trinket/msc.o
 .text.udi_msc_spc_mode_sense
                0x0000000000001328       0x70 build/tis_trinket/msc.o
 .text.udi_msc_sbc_trans
                0x0000000000001398       0xc8 build/tis_trinket/msc.o
 .text.process_msc
                0x0000000000001460      0x13c build/tis_trinket/msc.o
                0x0000000000001460                process_msc
 .text.handoverPrep
                0x000000000000159c       0x24 build/tis_trinket/msc.o
                0x000000000000159c                handoverPrep
 .text.handover
                0x00000000000015c0       0xe8 build/tis_trinket/msc.o
 .text.call_applet
                0x00000000000016a8       0x20 build/tis_trinket/sam_ba_monitor.o
                0x00000000000016a8                call_applet
 .text.put_uint32
                0x00000000000016c8       0x16 build/tis_trinket/sam_ba_monitor.o
                0x00000000000016c8                put_uint32
 *fill*         0x00000000000016de        0x2 
 .text.sam_ba_monitor_run
                0x00000000000016e0      0x250 build/tis_trinket/sam_ba_monitor.o
                0x00000000000016e0                sam_ba_monitor_run
 .text.recv_hf2
                0x0000000000001930       0x5a build/tis_trinket/hid.o
                0x0000000000001930                recv_hf2
 .text.send_hf2
                0x000000000000198a       0x46 build/tis_trinket/hid.o
                0x000000000000198a                send_hf2
 .text.send_hf2_response
                0x00000000000019d0       0x14 build/tis_trinket/hid.o
                0x00000000000019d0                send_hf2_response
 .text.process_core
                0x00000000000019e4      0x100 build/tis_trinket/hid.o
                0x00000000000019e4                process_core
 .text.process_hid
                0x0000000000001ae4       0x28 build/tis_trinket/hid.o
                0x0000000000001ae4                process_hid
 .text.hidHandoverLoop
                0x0000000000001b0c       0x24 build/tis_trinket/hid.o
                0x0000000000001b0c                hidHandoverLoop
 .text          0x0000000000001b30       0x14 /Applications/Arduino-1.8.13.app/Contents/Java/portable/packages/adafruit/tools/arm-none-eabi-gcc/9-2019q4/bin/../lib/gcc/arm-none-eabi/9.2.1/thumb/v6-m/nofp/libgcc.a(_thumb1_case_sqi.o)
                0x0000000000001b30                __gnu_thumb1_case_sqi
 .text          0x0000000000001b44       0x14 /Applications/Arduino-1.8.13.app/Contents/Java/portable/packages/adafruit/tools/arm-none-eabi-gcc/9-2019q4/bin/../lib/gcc/arm-none-eabi/9.2.1/thumb/v6-m/nofp/libgcc.a(_thumb1_case_uqi.o)
                0x0000000000001b44                __gnu_thumb1_case_uqi
 .text.memcpy   0x0000000000001b58       0x12 /Applications/Arduino-1.8.13.app/Contents/Java/portable/packages/adafruit/tools/arm-none-eabi-gcc/9-2019q4/bin/../lib/gcc/arm-none-eabi/9.2.1/../../../../arm-none-eabi/lib/thumb/v6-m/nofp/libg_nano.a(lib_a-memcpy-stub.o)
                0x0000000000001b58                memcpy
 .text.memset   0x0000000000001b6a       0x10 /Applications/Arduino-1.8.13.app/Contents/Java/portable/packages/adafruit/tools/arm-none-eabi-gcc/9-2019q4/bin/../lib/gcc/arm-none-eabi/9.2.1/../../../../arm-none-eabi/lib/thumb/v6-m/nofp/libg_nano.a(lib_a-memset.o)
                0x0000000000001b6a                memset
 .text          0x0000000000001b7a        0xe /Applications/Arduino-1.8.13.app/Contents/Java/portable/packages/adafruit/tools/arm-none-eabi-gcc/9-2019q4/bin/../lib/gcc/arm-none-eabi/9.2.1/../../../../arm-none-eabi/lib/thumb/v6-m/nofp/libg_nano.a(lib_a-strlen.o)
                0x0000000000001b7a                strlen
 *(.glue_7t)
 .glue_7t       0x0000000000001b88        0x0 linker stubs
 *(.glue_7)
 .glue_7        0x0000000000001b88        0x0 linker stubs
 *(.rodata .rodata* .gnu.linkonce.r.*)
 .rodata.str1.1
                0x0000000000001b88       0x18 build/tis_trinket/cdc_enumerate.o
 .rodata        0x0000000000001ba0       0x10 build/tis_trinket/cdc_enumerate.o
 .rodata.devDescriptor
                0x0000000000001bb0       0x12 build/tis_trinket/cdc_enumerate.o
                0x0000000000001bb0                devDescriptor
 *fill*         0x0000000000001bc2        0x2 
 .rodata.hidDescriptor
                0x0000000000001bc4       0x21 build/tis_trinket/cdc_enumerate.o
                0x0000000000001bc4                hidDescriptor
 *fill*         0x0000000000001be5        0x3 
 .rodata.string_descriptors
                0x0000000000001be8       0x10 build/tis_trinket/cdc_enumerate.o
 .rodata.BootBlock
                0x0000000000001bf8       0x3e build/tis_trinket/fat.o
 .rodata.indexFile
                0x0000000000001c36       0x71 build/tis_trinket/fat.o
                0x0000000000001c36                indexFile
 *fill*         0x0000000000001ca7        0x1 
 .rodata.info   0x0000000000001ca8       0x30 build/tis_trinket/fat.o
 .rodata.infoUf2File
                0x0000000000001cd8       0x42 build/tis_trinket/fat.o
                0x0000000000001cd8                infoUf2File
 .rodata.process_msc.str1.1
                0x0000000000001d1a        0x4 build/tis_trinket/msc.o
 .rodata        0x0000000000001d1a        0xc build/tis_trinket/msc.o
 .rodata.sam_ba_monitor_run.str1.1
                0x0000000000001d26       0x10 build/tis_trinket/sam_ba_monitor.o
 .rodata.fullVersion
                0x0000000000001d36       0x2a build/tis_trinket/sam_ba_monitor.o
 *(.ARM.extab* .gnu.linkonce.armextab.*)
                0x0000000000001d60                . = ALIGN (0x4)
 *(.init)
                0x0000000000001d60                . = ALIGN (0x4)
                0x0000000000001d60                __preinit_array_start = .
 *(.preinit_array)
                0x0000000000001d60                __preinit_array_end = .
                0x0000000000001d60                . = ALIGN (0x4)
                0x0000000000001d60                __init_array_start = .
 *(SORT_BY_NAME(.init_array.*))
 *(.init_array)
                0x0000000000001d60                __init_array_end = .
                0x0000000000001d60                . = ALIGN (0x4)
 *crtbegin.o(.ctors)
 *(EXCLUDE_FILE(*crtend.o) .ctors)
 *(SORT_BY_NAME(.ctors.*))
 *crtend.o(.ctors)
                0x0000000000001d60                . = ALIGN (0x4)
                0x0000000000001d60                _efixed = .
                [!provide]                        PROVIDE (__exidx_start = .)

.vfp11_veneer   0x0000000000001d60        0x0
 .vfp11_veneer  0x0000000000001d60        0x0 linker stubs

.v4_bx          0x0000000000001d60        0x0
 .v4_bx         0x0000000000001d60        0x0 linker stubs

.iplt           0x0000000000001d60        0x0
 .iplt          0x0000000000001d60        0x0 build/tis_trinket/flash_samd21.o

.igot.plt       0x0000000000001d60        0x0
 .igot.plt      0x0000000000001d60        0x0 build/tis_trinket/flash_samd21.o

.rel.dyn        0x0000000000001d60        0x0
 .rel.iplt      0x0000000000001d60        0x0 build/tis_trinket/flash_samd21.o

.ARM.exidx
 *(.ARM.exidx* .gnu.linkonce.armexidx.*)
                [!provide]                        PROVIDE (__exidx_end = .)
                0x0000000000001d60                . = ALIGN (0x4)
                0x0000000000001d60                _etext = .

.relocate       0x0000000020000000      0x1d0 load address 0x0000000000001d60
                0x0000000020000000                . = ALIGN (0x4)
                0x0000000020000000                _srelocate = .
 *(.ramfunc .ramfunc.*)
 *(.data .data.*)
 .data.current_cpu_frequency_MHz
                0x0000000020000000        0x4 build/tis_trinket/init_samd21.o
                0x0000000020000000                current_cpu_frequency_MHz
 .data.led_tick_step
                0x0000000020000004        0x1 build/tis_trinket/utils.o
                0x0000000020000004                led_tick_step
 .data.limit    0x0000000020000005        0x1 build/tis_trinket/utils.o
 *fill*         0x0000000020000006        0x2 
 .data.bosDescriptor
                0x0000000020000008       0x39 build/tis_trinket/cdc_enumerate.o
 *fill*         0x0000000020000041        0x3 
 .data.cfgDescriptor
                0x0000000020000044       0x99 build/tis_trinket/cdc_enumerate.o
                0x0000000020000044                cfgDescriptor
 *fill*         0x00000000200000dd        0x3 
 .data.hidCfgDescriptor
                0x00000000200000e0        0x9 build/tis_trinket/cdc_enumerate.o
                0x00000000200000e0                hidCfgDescriptor
 *fill*         0x00000000200000e9        0x3 
 .data.line_coding
                0x00000000200000ec        0x8 build/tis_trinket/cdc_enumerate.o
 .data.msOS20Descriptor
                0x00000000200000f4       0xaa build/tis_trinket/cdc_enumerate.o
 .data.udi_msc_csw
                0x000000002000019e        0xd build/tis_trinket/msc.o
 *fill*         0x00000000200001ab        0x1 
 .data.udi_msc_inquiry_data.12096
                0x00000000200001ac       0x24 build/tis_trinket/msc.o
                0x00000000200001d0                . = ALIGN (0x4)
                0x00000000200001d0                _erelocate = .

.bss            0x00000000200001d0      0xc0c load address 0x0000000000001f30
                0x00000000200001d0                . = ALIGN (0x4)
                0x00000000200001d0                _sbss = .
                0x00000000200001d0                _szero = .
 *(.bss .bss.*)
 .bss.crcCache  0x00000000200001d0      0x200 build/tis_trinket/usart_sam_ba.o
 .bss.led_tick_on
                0x00000000200003d0        0x1 build/tis_trinket/utils.o
                0x00000000200003d0                led_tick_on
 *fill*         0x00000000200003d1        0x3 
 .bss.now       0x00000000200003d4        0x4 build/tis_trinket/utils.o
 .bss.signal_end
                0x00000000200003d8        0x4 build/tis_trinket/utils.o
 .bss.timerLow  0x00000000200003dc        0x4 build/tis_trinket/utils.o
 .bss.currentConfiguration
                0x00000000200003e0        0x1 build/tis_trinket/cdc_enumerate.o
 .bss.serial_number
                0x00000000200003e1       0x21 build/tis_trinket/cdc_enumerate.o
 .bss.wLength   0x0000000020000402        0x2 build/tis_trinket/cdc_enumerate.o
 .bss.main_b_cdc_enable
                0x0000000020000404        0x1 build/tis_trinket/main.o
 *fill*         0x0000000020000405        0x3 
 .bss.block_buffer
                0x0000000020000408      0x200 build/tis_trinket/msc.o
 .bss.sense.12119
                0x0000000020000608       0x14 build/tis_trinket/msc.o
 .bss.udi_msc_capacity.12129
                0x000000002000061c        0x8 build/tis_trinket/msc.o
 .bss.udi_msc_cbw
                0x0000000020000624       0x1f build/tis_trinket/msc.o
 .bss.udi_msc_sense
                0x0000000020000643       0x12 build/tis_trinket/msc.o
 *fill*         0x0000000020000655        0x3 
 .bss.usbWriteState
                0x0000000020000658       0x98 build/tis_trinket/msc.o
 .bss.b_sam_ba_interface_usart
                0x00000000200006f0        0x1 build/tis_trinket/sam_ba_monitor.o
                0x00000000200006f0                b_sam_ba_interface_usart
 *fill*         0x00000000200006f1        0x3 
 .bss.src_buff_addr.11541
                0x00000000200006f4        0x4 build/tis_trinket/sam_ba_monitor.o
 .bss.hidbufData
                0x00000000200006f8      0x188 build/tis_trinket/hid.o
 .bss.webbufData
                0x0000000020000880      0x188 build/tis_trinket/hid.o
 *(COMMON)
 COMMON         0x0000000020000a08        0x8 build/tis_trinket/utils.o
                0x0000000020000a08                timerHigh
                0x0000000020000a0c                resetHorizon
 COMMON         0x0000000020000a10      0x364 build/tis_trinket/cdc_enumerate.o
                0x0000000020000a10                ctrlOutCache
                0x0000000020000a54                usb_endpoint_table
                0x0000000020000b54                endpointCache
 COMMON         0x0000000020000d74       0x68 build/tis_trinket/sam_ba_monitor.o
                0x0000000020000d74                j
                0x0000000020000d78                length
                0x0000000020000d7c                ptr
                0x0000000020000d80                command
                0x0000000020000d84                i
                0x0000000020000d88                data
                0x0000000020000dcc                ptr_data
                0x0000000020000dd0                sp
                0x0000000020000dd4                current_number
                0x0000000020000dd8                u32tmp
                0x0000000020000ddc                . = ALIGN (0x4)
                0x0000000020000ddc                _ebss = .
                0x0000000020000ddc                _ezero = .

.stack          0x0000000020000ddc     0x2004 load address 0x0000000000002b3c
                0x0000000020000de0                . = ALIGN (0x8)
 *fill*         0x0000000020000ddc        0x4 
                0x0000000020000de0                _sstack = .
                0x0000000020002de0                . = (. + STACK_SIZE)
 *fill*         0x0000000020000de0     0x2000 
                0x0000000020002de0                . = ALIGN (0x8)
                0x0000000020002de0                _estack = .
                0x0000000020002de0                . = ALIGN (0x4)
                0x0000000020002de0                _end = .
                0x0000000000001ff0                _binfo_start = 0x1ff0

.binfo          0x0000000000001ff0       0x10
 *(.binfo)
 .binfo         0x0000000000001ff0       0x10 build/tis_trinket/msc.o
                0x0000000000001ff0                binfo
OUTPUT(build/tis_trinket/bootloader-tis_trinket-3756966.elf elf32-littlearm)

.debug_info     0x0000000000000000    0x1b3ca
 .debug_info    0x0000000000000000     0x10f5 build/tis_trinket/flash_samd21.o
 .debug_info    0x00000000000010f5     0x2591 build/tis_trinket/init_samd21.o
 .debug_info    0x0000000000003686     0x3995 build/tis_trinket/startup_samd21.o
 .debug_info    0x000000000000701b     0x41fc build/tis_trinket/usart_sam_ba.o
 .debug_info    0x000000000000b217     0x13d1 build/tis_trinket/utils.o
 .debug_info    0x000000000000c5e8     0x494a build/tis_trinket/cdc_enumerate.o
 .debug_info    0x0000000000010f32     0x1121 build/tis_trinket/fat.o
 .debug_info    0x0000000000012053     0x3367 build/tis_trinket/main.o
 .debug_info    0x00000000000153ba     0x3ceb build/tis_trinket/msc.o
 .debug_info    0x00000000000190a5      0xf34 build/tis_trinket/sam_ba_monitor.o
 .debug_info    0x0000000000019fd9     0x13f1 build/tis_trinket/hid.o

.debug_abbrev   0x0000000000000000     0x2c88
 .debug_abbrev  0x0000000000000000      0x304 build/tis_trinket/flash_samd21.o
 .debug_abbrev  0x0000000000000304      0x3c0 build/tis_trinket/init_samd21.o
 .debug_abbrev  0x00000000000006c4      0x29e build/tis_trinket/startup_samd21.o
 .debug_abbrev  0x0000000000000962      0x510 build/tis_trinket/usart_sam_ba.o
 .debug_abbrev  0x0000000000000e72      0x3e3 build/tis_trinket/utils.o
 .debug_abbrev  0x0000000000001255      0x562 build/tis_trinket/cdc_enumerate.o
 .debug_abbrev  0x00000000000017b7      0x369 build/tis_trinket/fat.o
 .debug_abbrev  0x0000000000001b20      0x3c3 build/tis_trinket/main.o
 .debug_abbrev  0x0000000000001ee3      0x586 build/tis_trinket/msc.o
 .debug_abbrev  0x0000000000002469      0x3f1 build/tis_trinket/sam_ba_monitor.o
 .debug_abbrev  0x000000000000285a      0x42e build/tis_trinket/hid.o

.debug_loc      0x0000000000000000     0x335c
 .debug_loc     0x0000000000000000      0x4a4 build/tis_trinket/flash_samd21.o
 .debug_loc     0x00000000000004a4       0x5a build/tis_trinket/init_samd21.o
 .debug_loc     0x00000000000004fe       0x5a build/tis_trinket/startup_samd21.o
 .debug_loc     0x0000000000000558      0xa19 build/tis_trinket/usart_sam_ba.o
 .debug_loc     0x0000000000000f71      0x1b1 build/tis_trinket/utils.o
 .debug_loc     0x0000000000001122      0xd92 build/tis_trinket/cdc_enumerate.o
 .debug_loc     0x0000000000001eb4      0x562 build/tis_trinket/fat.o
 .debug_loc     0x0000000000002416       0x7a build/tis_trinket/main.o
 .debug_loc     0x0000000000002490      0x5ca build/tis_trinket/msc.o
 .debug_loc     0x0000000000002a5a      0x252 build/tis_trinket/sam_ba_monitor.o
 .debug_loc     0x0000000000002cac      0x6b0 build/tis_trinket/hid.o

.debug_aranges  0x0000000000000000      0x388
 .debug_aranges
                0x0000000000000000       0x48 build/tis_trinket/flash_samd21.o
 .debug_aranges
                0x0000000000000048       0x30 build/tis_trinket/init_samd21.o
 .debug_aranges
                0x0000000000000078       0x30 build/tis_trinket/startup_samd21.o
 .debug_aranges
                0x00000000000000a8       0x88 build/tis_trinket/usart_sam_ba.o
 .debug_aranges
                0x0000000000000130       0x68 build/tis_trinket/utils.o
 .debug_aranges
                0x0000000000000198       0x98 build/tis_trinket/cdc_enumerate.o
 .debug_aranges
                0x0000000000000230       0x30 build/tis_trinket/fat.o
 .debug_aranges
                0x0000000000000260       0x20 build/tis_trinket/main.o
 .debug_aranges
                0x0000000000000280       0x80 build/tis_trinket/msc.o
 .debug_aranges
                0x0000000000000300       0x40 build/tis_trinket/sam_ba_monitor.o
 .debug_aranges
                0x0000000000000340       0x48 build/tis_trinket/hid.o

.debug_ranges   0x0000000000000000      0x730
 .debug_ranges  0x0000000000000000       0xa8 build/tis_trinket/flash_samd21.o
 .debug_ranges  0x00000000000000a8       0x40 build/tis_trinket/init_samd21.o
 .debug_ranges  0x00000000000000e8       0x20 build/tis_trinket/startup_samd21.o
 .debug_ranges  0x0000000000000108       0xb0 build/tis_trinket/usart_sam_ba.o
 .debug_ranges  0x00000000000001b8       0x90 build/tis_trinket/utils.o
 .debug_ranges  0x0000000000000248       0xf0 build/tis_trinket/cdc_enumerate.o
 .debug_ranges  0x0000000000000338      0x110 build/tis_trinket/fat.o
 .debug_ranges  0x0000000000000448       0x40 build/tis_trinket/main.o
 .debug_ranges  0x0000000000000488      0x188 build/tis_trinket/msc.o
 .debug_ranges  0x0000000000000610       0x98 build/tis_trinket/sam_ba_monitor.o
 .debug_ranges  0x00000000000006a8       0x88 build/tis_trinket/hid.o

.debug_line     0x0000000000000000     0x5184
 .debug_line    0x0000000000000000      0x58f build/tis_trinket/flash_samd21.o
 .debug_line    0x000000000000058f      0x47a build/tis_trinket/init_samd21.o
 .debug_line    0x0000000000000a09      0x331 build/tis_trinket/startup_samd21.o
 .debug_line    0x0000000000000d3a      0xa78 build/tis_trinket/usart_sam_ba.o
 .debug_line    0x00000000000017b2      0x602 build/tis_trinket/utils.o
 .debug_line    0x0000000000001db4      0xe4d build/tis_trinket/cdc_enumerate.o
 .debug_line    0x0000000000002c01      0x72a build/tis_trinket/fat.o
 .debug_line    0x000000000000332b      0x70c build/tis_trinket/main.o
 .debug_line    0x0000000000003a37      0xa7c build/tis_trinket/msc.o
 .debug_line    0x00000000000044b3      0x6a6 build/tis_trinket/sam_ba_monitor.o
 .debug_line    0x0000000000004b59      0x62b build/tis_trinket/hid.o

.debug_str      0x0000000000000000     0x3eba
 .debug_str     0x0000000000000000      0x775 build/tis_trinket/flash_samd21.o
                                        0x858 (size before relaxing)
 .debug_str     0x0000000000000775      0x6cd build/tis_trinket/init_samd21.o
                                        0xec1 (size before relaxing)
 .debug_str     0x0000000000000e42      0xed1 build/tis_trinket/startup_samd21.o
                                       0x1379 (size before relaxing)
 .debug_str     0x0000000000001d13      0xc55 build/tis_trinket/usart_sam_ba.o
                                       0x1423 (size before relaxing)
 .debug_str     0x0000000000002968       0xc3 build/tis_trinket/utils.o
                                        0x8c9 (size before relaxing)
 .debug_str     0x0000000000002a2b      0x43e build/tis_trinket/cdc_enumerate.o
                                       0x1690 (size before relaxing)
 .debug_str     0x0000000000002e69      0x29f build/tis_trinket/fat.o
                                        0x953 (size before relaxing)
 .debug_str     0x0000000000003108      0x12e build/tis_trinket/main.o
                                       0x114a (size before relaxing)
 .debug_str     0x0000000000003236      0x9dc build/tis_trinket/msc.o
                                       0x1917 (size before relaxing)
 .debug_str     0x0000000000003c12       0xa9 build/tis_trinket/sam_ba_monitor.o
                                        0x7fc (size before relaxing)
 .debug_str     0x0000000000003cbb      0x1ff build/tis_trinket/hid.o
                                        0x93e (size before relaxing)

.comment        0x0000000000000000       0x79
 .comment       0x0000000000000000       0x79 build/tis_trinket/flash_samd21.o
                                         0x7a (size before relaxing)
 .comment       0x0000000000000079       0x7a build/tis_trinket/init_samd21.o
 .comment       0x0000000000000079       0x7a build/tis_trinket/startup_samd21.o
 .comment       0x0000000000000079       0x7a build/tis_trinket/usart_sam_ba.o
 .comment       0x0000000000000079       0x7a build/tis_trinket/utils.o
 .comment       0x0000000000000079       0x7a build/tis_trinket/cdc_enumerate.o
 .comment       0x0000000000000079       0x7a build/tis_trinket/fat.o
 .comment       0x0000000000000079       0x7a build/tis_trinket/main.o
 .comment       0x0000000000000079       0x7a build/tis_trinket/msc.o
 .comment       0x0000000000000079       0x7a build/tis_trinket/sam_ba_monitor.o
 .comment       0x0000000000000079       0x7a build/tis_trinket/hid.o

.ARM.attributes
                0x0000000000000000       0x2a
 .ARM.attributes
                0x0000000000000000       0x2c build/tis_trinket/flash_samd21.o
 .ARM.attributes
                0x000000000000002c       0x2c build/tis_trinket/init_samd21.o
 .ARM.attributes
                0x0000000000000058       0x2c build/tis_trinket/startup_samd21.o
 .ARM.attributes
                0x0000000000000084       0x2c build/tis_trinket/usart_sam_ba.o
 .ARM.attributes
                0x00000000000000b0       0x2c build/tis_trinket/utils.o
 .ARM.attributes
                0x00000000000000dc       0x2c build/tis_trinket/cdc_enumerate.o
 .ARM.attributes
                0x0000000000000108       0x2c build/tis_trinket/fat.o
 .ARM.attributes
                0x0000000000000134       0x2c build/tis_trinket/main.o
 .ARM.attributes
                0x0000000000000160       0x2c build/tis_trinket/msc.o
 .ARM.attributes
                0x000000000000018c       0x2c build/tis_trinket/sam_ba_monitor.o
 .ARM.attributes
                0x00000000000001b8       0x2c build/tis_trinket/hid.o
 .ARM.attributes
                0x00000000000001e4       0x1e /Applications/Arduino-1.8.13.app/Contents/Java/portable/packages/adafruit/tools/arm-none-eabi-gcc/9-2019q4/bin/../lib/gcc/arm-none-eabi/9.2.1/thumb/v6-m/nofp/libgcc.a(_thumb1_case_sqi.o)
 .ARM.attributes
                0x0000000000000202       0x1e /Applications/Arduino-1.8.13.app/Contents/Java/portable/packages/adafruit/tools/arm-none-eabi-gcc/9-2019q4/bin/../lib/gcc/arm-none-eabi/9.2.1/thumb/v6-m/nofp/libgcc.a(_thumb1_case_uqi.o)
 .ARM.attributes
                0x0000000000000220       0x2c /Applications/Arduino-1.8.13.app/Contents/Java/portable/packages/adafruit/tools/arm-none-eabi-gcc/9-2019q4/bin/../lib/gcc/arm-none-eabi/9.2.1/../../../../arm-none-eabi/lib/thumb/v6-m/nofp/libg_nano.a(lib_a-memcpy-stub.o)
 .ARM.attributes
                0x000000000000024c       0x2c /Applications/Arduino-1.8.13.app/Contents/Java/portable/packages/adafruit/tools/arm-none-eabi-gcc/9-2019q4/bin/../lib/gcc/arm-none-eabi/9.2.1/../../../../arm-none-eabi/lib/thumb/v6-m/nofp/libg_nano.a(lib_a-memset.o)
 .ARM.attributes
                0x0000000000000278       0x1c /Applications/Arduino-1.8.13.app/Contents/Java/portable/packages/adafruit/tools/arm-none-eabi-gcc/9-2019q4/bin/../lib/gcc/arm-none-eabi/9.2.1/../../../../arm-none-eabi/lib/thumb/v6-m/nofp/libg_nano.a(lib_a-strlen.o)

.debug_frame    0x0000000000000000      0x928
 .debug_frame   0x0000000000000000       0xb4 build/tis_trinket/flash_samd21.o
 .debug_frame   0x00000000000000b4       0x54 build/tis_trinket/init_samd21.o
 .debug_frame   0x0000000000000108       0x4c build/tis_trinket/startup_samd21.o
 .debug_frame   0x0000000000000154      0x188 build/tis_trinket/usart_sam_ba.o
 .debug_frame   0x00000000000002dc       0xcc build/tis_trinket/utils.o
 .debug_frame   0x00000000000003a8      0x1d0 build/tis_trinket/cdc_enumerate.o
 .debug_frame   0x0000000000000578       0x68 build/tis_trinket/fat.o
 .debug_frame   0x00000000000005e0       0x30 build/tis_trinket/main.o
 .debug_frame   0x0000000000000610      0x178 build/tis_trinket/msc.o
 .debug_frame   0x0000000000000788       0x94 build/tis_trinket/sam_ba_monitor.o
 .debug_frame   0x000000000000081c       0xc4 build/tis_trinket/hid.o
 .debug_frame   0x00000000000008e0       0x28 /Applications/Arduino-1.8.13.app/Contents/Java/portable/packages/adafruit/tools/arm-none-eabi-gcc/9-2019q4/bin/../lib/gcc/arm-none-eabi/9.2.1/../../../../arm-none-eabi/lib/thumb/v6-m/nofp/libg_nano.a(lib_a-memcpy-stub.o)
 .debug_frame   0x0000000000000908       0x20 /Applications/Arduino-1.8.13.app/Contents/Java/portable/packages/adafruit/tools/arm-none-eabi-gcc/9-2019q4/bin/../lib/gcc/arm-none-eabi/9.2.1/../../../../arm-none-eabi/lib/thumb/v6-m/nofp/libg_nano.a(lib_a-memset.o)

Cross Reference Table

Symbol                                            File
AC_Handler                                        build/tis_trinket/startup_samd21.o
ADC_Handler                                       build/tis_trinket/startup_samd21.o
AT91F_InitUSB                                     build/tis_trinket/cdc_enumerate.o
AT91F_USB_SendZlp                                 build/tis_trinket/cdc_enumerate.o
DAC_Handler                                       build/tis_trinket/startup_samd21.o
DMAC_Handler                                      build/tis_trinket/startup_samd21.o
Dummy_Handler                                     build/tis_trinket/startup_samd21.o
EIC_Handler                                       build/tis_trinket/startup_samd21.o
EVSYS_Handler                                     build/tis_trinket/startup_samd21.o
HardFault_Handler                                 build/tis_trinket/startup_samd21.o
I2S_Handler                                       build/tis_trinket/startup_samd21.o
NMI_Handler                                       build/tis_trinket/startup_samd21.o
NVMCTRL_Handler                                   build/tis_trinket/startup_samd21.o
PM_Handler                                        build/tis_trinket/startup_samd21.o
PTC_Handler                                       build/tis_trinket/startup_samd21.o
PendSV_Handler                                    build/tis_trinket/startup_samd21.o
RGBLED_set_color                                  build/tis_trinket/utils.o
                                                  build/tis_trinket/sam_ba_monitor.o
                                                  build/tis_trinket/main.o
RTC_Handler                                       build/tis_trinket/startup_samd21.o
Reset_Handler                                     build/tis_trinket/startup_samd21.o
SERCOM0_Handler                                   build/tis_trinket/startup_samd21.o
SERCOM1_Handler                                   build/tis_trinket/startup_samd21.o
SERCOM2_Handler                                   build/tis_trinket/startup_samd21.o
SERCOM3_Handler                                   build/tis_trinket/startup_samd21.o
SVC_Handler                                       build/tis_trinket/startup_samd21.o
SYSCTRL_Handler                                   build/tis_trinket/startup_samd21.o
SysTick_Handler                                   build/tis_trinket/init_samd21.o
TC3_Handler                                       build/tis_trinket/startup_samd21.o
TC4_Handler                                       build/tis_trinket/startup_samd21.o
TC5_Handler                                       build/tis_trinket/startup_samd21.o
TCC0_Handler                                      build/tis_trinket/startup_samd21.o
TCC1_Handler                                      build/tis_trinket/startup_samd21.o
TCC2_Handler                                      build/tis_trinket/startup_samd21.o
USB_Handler                                       build/tis_trinket/startup_samd21.o
USB_Ok                                            build/tis_trinket/cdc_enumerate.o
                                                  build/tis_trinket/msc.o
                                                  build/tis_trinket/main.o
USB_Read                                          build/tis_trinket/cdc_enumerate.o
USB_ReadBlocking                                  build/tis_trinket/cdc_enumerate.o
                                                  build/tis_trinket/msc.o
USB_ReadCore                                      build/tis_trinket/cdc_enumerate.o
                                                  build/tis_trinket/hid.o
                                                  build/tis_trinket/msc.o
USB_Write                                         build/tis_trinket/cdc_enumerate.o
                                                  build/tis_trinket/msc.o
USB_WriteCore                                     build/tis_trinket/cdc_enumerate.o
                                                  build/tis_trinket/hid.o
                                                  build/tis_trinket/msc.o
WDT_Handler                                       build/tis_trinket/startup_samd21.o
__gnu_thumb1_case_sqi                             /Applications/Arduino-1.8.13.app/Contents/Java/portable/packages/adafruit/tools/arm-none-eabi-gcc/9-2019q4/bin/../lib/gcc/arm-none-eabi/9.2.1/thumb/v6-m/nofp/libgcc.a(_thumb1_case_sqi.o)
                                                  build/tis_trinket/msc.o
__gnu_thumb1_case_uqi                             /Applications/Arduino-1.8.13.app/Contents/Java/portable/packages/adafruit/tools/arm-none-eabi-gcc/9-2019q4/bin/../lib/gcc/arm-none-eabi/9.2.1/thumb/v6-m/nofp/libgcc.a(_thumb1_case_uqi.o)
                                                  build/tis_trinket/hid.o
_erelocate                                        build/tis_trinket/startup_samd21.o
_estack                                           build/tis_trinket/startup_samd21.o
_etext                                            build/tis_trinket/startup_samd21.o
_ezero                                            build/tis_trinket/startup_samd21.o
_sfixed                                           build/tis_trinket/startup_samd21.o
_srelocate                                        build/tis_trinket/startup_samd21.o
_szero                                            build/tis_trinket/startup_samd21.o
add_crc                                           build/tis_trinket/usart_sam_ba.o
                                                  build/tis_trinket/hid.o
                                                  build/tis_trinket/sam_ba_monitor.o
arrowLogo                                         build/tis_trinket/images.o
b_sam_ba_interface_usart                          build/tis_trinket/sam_ba_monitor.o
b_sharp_received                                  build/tis_trinket/usart_sam_ba.o
binfo                                             build/tis_trinket/msc.o
buffer_rx_usart                                   build/tis_trinket/usart_sam_ba.o
buffer_tx_usart                                   build/tis_trinket/usart_sam_ba.o
call_applet                                       build/tis_trinket/sam_ba_monitor.o
cdc_is_rx_ready                                   build/tis_trinket/cdc_enumerate.o
cdc_read_buf                                      build/tis_trinket/cdc_enumerate.o
                                                  build/tis_trinket/sam_ba_monitor.o
cdc_read_buf_xmd                                  build/tis_trinket/cdc_enumerate.o
                                                  build/tis_trinket/sam_ba_monitor.o
cdc_write_buf                                     build/tis_trinket/cdc_enumerate.o
                                                  build/tis_trinket/sam_ba_monitor.o
cdc_write_buf_xmd                                 build/tis_trinket/cdc_enumerate.o
                                                  build/tis_trinket/sam_ba_monitor.o
cfgDescriptor                                     build/tis_trinket/cdc_enumerate.o
command                                           build/tis_trinket/sam_ba_monitor.o
copy_words                                        build/tis_trinket/flash_samd21.o
                                                  build/tis_trinket/hid.o
ctrlOutCache                                      build/tis_trinket/cdc_enumerate.o
current_cpu_frequency_MHz                         build/tis_trinket/init_samd21.o
                                                  build/tis_trinket/utils.o
current_number                                    build/tis_trinket/sam_ba_monitor.o
data                                              build/tis_trinket/sam_ba_monitor.o
delay                                             build/tis_trinket/utils.o
                                                  build/tis_trinket/main.o
devDescriptor                                     build/tis_trinket/cdc_enumerate.o
endpointCache                                     build/tis_trinket/cdc_enumerate.o
error_timeout                                     build/tis_trinket/usart_sam_ba.o
exception_table                                   build/tis_trinket/startup_samd21.o
fileLogo                                          build/tis_trinket/images.o
flash_erase_row                                   build/tis_trinket/flash_samd21.o
flash_erase_to_end                                build/tis_trinket/flash_samd21.o
                                                  build/tis_trinket/sam_ba_monitor.o
flash_write                                       build/tis_trinket/flash_samd21.o
flash_write_row                                   build/tis_trinket/flash_samd21.o
                                                  build/tis_trinket/hid.o
                                                  build/tis_trinket/fat.o
flash_write_words                                 build/tis_trinket/flash_samd21.o
                                                  build/tis_trinket/sam_ba_monitor.o
font8                                             build/tis_trinket/images.o
g_interrupt_enabled                               build/tis_trinket/init_samd21.o
getPacket                                         build/tis_trinket/usart_sam_ba.o
handoverPrep                                      build/tis_trinket/msc.o
                                                  build/tis_trinket/hid.o
hidCfgDescriptor                                  build/tis_trinket/cdc_enumerate.o
hidDescriptor                                     build/tis_trinket/cdc_enumerate.o
hidHandoverLoop                                   build/tis_trinket/hid.o
                                                  build/tis_trinket/msc.o
i                                                 build/tis_trinket/sam_ba_monitor.o
idx_rx_read                                       build/tis_trinket/usart_sam_ba.o
idx_rx_write                                      build/tis_trinket/usart_sam_ba.o
idx_tx_read                                       build/tis_trinket/usart_sam_ba.o
idx_tx_write                                      build/tis_trinket/usart_sam_ba.o
indexFile                                         build/tis_trinket/fat.o
infoUf2File                                       build/tis_trinket/fat.o
                                                  build/tis_trinket/hid.o
                                                  build/tis_trinket/msc.o
j                                                 build/tis_trinket/sam_ba_monitor.o
led_init                                          build/tis_trinket/utils.o
                                                  build/tis_trinket/main.o
led_signal                                        build/tis_trinket/utils.o
                                                  build/tis_trinket/sam_ba_monitor.o
                                                  build/tis_trinket/msc.o
led_tick                                          build/tis_trinket/utils.o
                                                  build/tis_trinket/init_samd21.o
led_tick_on                                       build/tis_trinket/utils.o
led_tick_step                                     build/tis_trinket/utils.o
                                                  build/tis_trinket/main.o
length                                            build/tis_trinket/sam_ba_monitor.o
main                                              build/tis_trinket/main.o
                                                  build/tis_trinket/startup_samd21.o
memcpy                                            /Applications/Arduino-1.8.13.app/Contents/Java/portable/packages/adafruit/tools/arm-none-eabi-gcc/9-2019q4/bin/../lib/gcc/arm-none-eabi/9.2.1/../../../../arm-none-eabi/lib/thumb/v6-m/nofp/libg_nano.a(lib_a-memcpy-stub.o)
                                                  build/tis_trinket/hid.o
                                                  build/tis_trinket/sam_ba_monitor.o
                                                  build/tis_trinket/msc.o
                                                  build/tis_trinket/fat.o
                                                  build/tis_trinket/cdc_enumerate.o
memset                                            /Applications/Arduino-1.8.13.app/Contents/Java/portable/packages/adafruit/tools/arm-none-eabi-gcc/9-2019q4/bin/../lib/gcc/arm-none-eabi/9.2.1/../../../../arm-none-eabi/lib/thumb/v6-m/nofp/libg_nano.a(lib_a-memset.o)
                                                  build/tis_trinket/hid.o
                                                  build/tis_trinket/msc.o
                                                  build/tis_trinket/fat.o
                                                  build/tis_trinket/cdc_enumerate.o
mode_of_transfer                                  build/tis_trinket/usart_sam_ba.o
mscReset                                          build/tis_trinket/msc.o
msc_reset                                         build/tis_trinket/msc.o
padded_memcpy                                     build/tis_trinket/fat.o
                                                  build/tis_trinket/msc.o
panic                                             build/tis_trinket/utils.o
pendriveLogo                                      build/tis_trinket/images.o
process_core                                      build/tis_trinket/hid.o
process_hid                                       build/tis_trinket/hid.o
                                                  build/tis_trinket/msc.o
process_msc                                       build/tis_trinket/msc.o
                                                  build/tis_trinket/sam_ba_monitor.o
ptr                                               build/tis_trinket/sam_ba_monitor.o
ptr_data                                          build/tis_trinket/sam_ba_monitor.o
put_uint32                                        build/tis_trinket/sam_ba_monitor.o
read_block                                        build/tis_trinket/fat.o
                                                  build/tis_trinket/msc.o
recv_hf2                                          build/tis_trinket/hid.o
resetHorizon                                      build/tis_trinket/utils.o
                                                  build/tis_trinket/main.o
                                                  build/tis_trinket/fat.o
resetIntoApp                                      build/tis_trinket/utils.o
                                                  build/tis_trinket/hid.o
                                                  build/tis_trinket/msc.o
resetIntoBootloader                               build/tis_trinket/utils.o
                                                  build/tis_trinket/hid.o
                                                  build/tis_trinket/msc.o
                                                  build/tis_trinket/main.o
reset_ep                                          build/tis_trinket/cdc_enumerate.o
                                                  build/tis_trinket/msc.o
sam_ba_monitor_init                               build/tis_trinket/sam_ba_monitor.o
sam_ba_monitor_run                                build/tis_trinket/sam_ba_monitor.o
                                                  build/tis_trinket/main.o
sam_ba_putdata_term                               build/tis_trinket/sam_ba_monitor.o
send_hf2                                          build/tis_trinket/hid.o
send_hf2_response                                 build/tis_trinket/hid.o
size_of_data                                      build/tis_trinket/usart_sam_ba.o
sp                                                build/tis_trinket/sam_ba_monitor.o
stall_ep                                          build/tis_trinket/cdc_enumerate.o
                                                  build/tis_trinket/msc.o
strlen                                            /Applications/Arduino-1.8.13.app/Contents/Java/portable/packages/adafruit/tools/arm-none-eabi-gcc/9-2019q4/bin/../lib/gcc/arm-none-eabi/9.2.1/../../../../arm-none-eabi/lib/thumb/v6-m/nofp/libg_nano.a(lib_a-strlen.o)
                                                  build/tis_trinket/hid.o
                                                  build/tis_trinket/fat.o
                                                  build/tis_trinket/cdc_enumerate.o
system_init                                       build/tis_trinket/init_samd21.o
                                                  build/tis_trinket/main.o
timerHigh                                         build/tis_trinket/utils.o
                                                  build/tis_trinket/main.o
                                                  build/tis_trinket/fat.o
timerTick                                         build/tis_trinket/utils.o
                                                  build/tis_trinket/cdc_enumerate.o
try_read_cbw                                      build/tis_trinket/msc.o
u32tmp                                            build/tis_trinket/sam_ba_monitor.o
uart_basic_init                                   build/tis_trinket/uart_driver.o
                                                  build/tis_trinket/usart_sam_ba.o
uart_disable                                      build/tis_trinket/uart_driver.o
                                                  build/tis_trinket/usart_sam_ba.o
uart_drv_error_flag                               build/tis_trinket/uart_driver.o
uart_get_sercom_index                             build/tis_trinket/uart_driver.o
                                                  build/tis_trinket/usart_sam_ba.o
uart_read_buffer_polled                           build/tis_trinket/uart_driver.o
uart_read_byte                                    build/tis_trinket/uart_driver.o
                                                  build/tis_trinket/usart_sam_ba.o
uart_write_buffer_polled                          build/tis_trinket/uart_driver.o
uart_write_byte                                   build/tis_trinket/uart_driver.o
                                                  build/tis_trinket/usart_sam_ba.o
udd_ep_set_halt                                   build/tis_trinket/msc.o
udi_msc_csw_send                                  build/tis_trinket/msc.o
usart_close                                       build/tis_trinket/usart_sam_ba.o
usart_getc                                        build/tis_trinket/usart_sam_ba.o
usart_getdata                                     build/tis_trinket/usart_sam_ba.o
usart_getdata_xmd                                 build/tis_trinket/usart_sam_ba.o
usart_is_rx_ready                                 build/tis_trinket/usart_sam_ba.o
usart_open                                        build/tis_trinket/usart_sam_ba.o
usart_putc                                        build/tis_trinket/usart_sam_ba.o
usart_putdata                                     build/tis_trinket/usart_sam_ba.o
usart_putdata_xmd                                 build/tis_trinket/usart_sam_ba.o
usart_readc                                       build/tis_trinket/usart_sam_ba.o
usart_sharp_received                              build/tis_trinket/usart_sam_ba.o
usb_endpoint_table                                build/tis_trinket/cdc_enumerate.o
usb_init                                          build/tis_trinket/cdc_enumerate.o
                                                  build/tis_trinket/main.o
writeNum                                          build/tis_trinket/utils.o
                                                  build/tis_trinket/sam_ba_monitor.o
                                                  build/tis_trinket/cdc_enumerate.o
write_block                                       build/tis_trinket/fat.o
                                                  build/tis_trinket/msc.o
